; Function Attrs: mustprogress nounwind uwtable
define dso_local void @_ZN4node16EmitAsyncDestroyEPN2v87IsolateENS_13async_contextE(ptr noundef nonnull %isolate, double %asyncContext.coerce0, double %asyncContext.coerce1) local_unnamed_addr #3 {
entry:
  %handle_scope.i = alloca %"class.v8::HandleScope", align 8
  call void @llvm.lifetime.start.p0(i64 24, ptr nonnull %handle_scope.i)
  %call.i = tail call noundef zeroext i1 @_ZN2v87Isolate9InContextEv(ptr noundef nonnull align 1 dereferenceable(1) %isolate) #12
  br i1 %call.i, label %if.end.i, label %_ZN4node11Environment10GetCurrentEPN2v87IsolateE.exit

if.end.i:                                         ; preds = %entry
  call void @_ZN2v811HandleScopeC1EPNS_7IsolateE(ptr noundef nonnull align 8 dereferenceable(24) %handle_scope.i, ptr noundef nonnull %isolate) #12
  %call3.i = call ptr @_ZN2v87Isolate17GetCurrentContextEv(ptr noundef nonnull align 1 dereferenceable(1) %isolate) #12
  %cmp.i.i.i.i = icmp eq ptr %call3.i, null
  br i1 %cmp.i.i.i.i, label %_ZN4node11Environment10GetCurrentEN2v85LocalINS1_7ContextEEE.exit.i, label %if.end.i.i.i

if.end.i.i.i:                                     ; preds = %if.end.i
  %call5.i.i.i = call noundef i32 @_ZN2v87Context29GetNumberOfEmbedderDataFieldsEv(ptr noundef nonnull align 1 dereferenceable(1) %call3.i) #12
  %cmp.i.i.i = icmp ult i32 %call5.i.i.i, 40
  br i1 %cmp.i.i.i, label %_ZN4node11Environment10GetCurrentEN2v85LocalINS1_7ContextEEE.exit.i, label %_ZN4node18ContextEmbedderTag13IsNodeContextEN2v85LocalINS1_7ContextEEE.exit.i.i

_ZN4node18ContextEmbedderTag13IsNodeContextEN2v85LocalINS1_7ContextEEE.exit.i.i: ; preds = %if.end.i.i.i
  %0 = load i64, ptr %call3.i, align 8
  %sub.i47.i.i.i = add i64 %0, 47
  %1 = inttoptr i64 %sub.i47.i.i.i to ptr
  %2 = load i64, ptr %1, align 8
  %sub.i.i.i.i = add i64 %2, 327
  %3 = inttoptr i64 %sub.i.i.i.i to ptr
  %4 = load i64, ptr %3, align 8
  %5 = inttoptr i64 %4 to ptr
  %6 = load ptr, ptr @_ZN4node18ContextEmbedderTag18kNodeContextTagPtrE, align 8
  %cmp12.not.i.i.i = icmp eq ptr %6, %5
  br i1 %cmp12.not.i.i.i, label %if.end.i.i, label %_ZN4node11Environment10GetCurrentEN2v85LocalINS1_7ContextEEE.exit.i

if.end.i.i:                                       ; preds = %_ZN4node18ContextEmbedderTag13IsNodeContextEN2v85LocalINS1_7ContextEEE.exit.i.i
  %sub.i.i.i = add i64 %2, 271
  %7 = inttoptr i64 %sub.i.i.i to ptr
  %8 = load i64, ptr %7, align 8
  %9 = inttoptr i64 %8 to ptr
  br label %_ZN4node11Environment10GetCurrentEN2v85LocalINS1_7ContextEEE.exit.i

_ZN4node11Environment10GetCurrentEN2v85LocalINS1_7ContextEEE.exit.i: ; preds = %if.end.i.i, %_ZN4node18ContextEmbedderTag13IsNodeContextEN2v85LocalINS1_7ContextEEE.exit.i.i, %if.end.i.i.i, %if.end.i
  %retval.0.i.i = phi ptr [ %9, %if.end.i.i ], [ null, %_ZN4node18ContextEmbedderTag13IsNodeContextEN2v85LocalINS1_7ContextEEE.exit.i.i ], [ null, %if.end.i ], [ null, %if.end.i.i.i ]
  call void @_ZN2v811HandleScopeD1Ev(ptr noundef nonnull align 8 dereferenceable(24) %handle_scope.i) #12
  br label %_ZN4node11Environment10GetCurrentEPN2v87IsolateE.exit

_ZN4node11Environment10GetCurrentEPN2v87IsolateE.exit: ; preds = %entry, %_ZN4node11Environment10GetCurrentEN2v85LocalINS1_7ContextEEE.exit.i
  %retval.0.i = phi ptr [ %retval.0.i.i, %_ZN4node11Environment10GetCurrentEN2v85LocalINS1_7ContextEEE.exit.i ], [ null, %entry ]
  call void @llvm.lifetime.end.p0(i64 24, ptr nonnull %handle_scope.i)
  call void @_ZN4node9AsyncWrap11EmitDestroyEPNS_11EnvironmentEd(ptr noundef %retval.0.i, double noundef %asyncContext.coerce0) #12
  ret void
}